; Function Attrs: mustprogress nofree norecurse nosync nounwind willreturn memory(argmem: read) uwtable
define dso_local noundef zeroext i1 @_ZNK4Luau8Location8enclosesERKS0_(ptr nocapture noundef nonnull readonly align 4 dereferenceable(16) %0, ptr nocapture noundef nonnull readonly align 4 dereferenceable(16) %1) local_unnamed_addr #0 align 2 {
  %3 = getelementptr inbounds i8, ptr %0, i64 4
  %4 = load i32, ptr %3, align 4
  %5 = getelementptr inbounds i8, ptr %1, i64 4
  %6 = load i32, ptr %5, align 4
  %7 = icmp eq i32 %4, %6
  %8 = load i32, ptr %0, align 4
  %9 = load i32, ptr %1, align 4
  %10 = icmp eq i32 %8, %9
  %11 = select i1 %7, i1 %10, i1 false
  br i1 %11, label %_ZNK4Luau8PositionleERKS0_.exit.thread, label %_ZNK4Luau8PositionleERKS0_.exit

_ZNK4Luau8PositionleERKS0_.exit:                  ; preds = %2
  %12 = icmp ult i32 %4, %6
  %13 = icmp ult i32 %8, %9
  %.0.i.i = select i1 %10, i1 %12, i1 %13
  br i1 %.0.i.i, label %_ZNK4Luau8PositionleERKS0_.exit.thread, label %_ZNK4Luau8PositiongeERKS0_.exit

_ZNK4Luau8PositionleERKS0_.exit.thread:           ; preds = %2, %_ZNK4Luau8PositionleERKS0_.exit
  %14 = getelementptr inbounds i8, ptr %0, i64 8
  %15 = getelementptr inbounds i8, ptr %1, i64 8
  %16 = getelementptr inbounds i8, ptr %0, i64 12
  %17 = load i32, ptr %16, align 4
  %18 = getelementptr inbounds i8, ptr %1, i64 12
  %19 = load i32, ptr %18, align 4
  %20 = icmp eq i32 %17, %19
  %21 = load i32, ptr %14, align 4
  %22 = load i32, ptr %15, align 4
  %23 = icmp eq i32 %21, %22
  %24 = select i1 %20, i1 %23, i1 false
  br i1 %24, label %_ZNK4Luau8PositiongeERKS0_.exit, label %25

25:                                               ; preds = %_ZNK4Luau8PositionleERKS0_.exit.thread
  %26 = icmp ugt i32 %17, %19
  %27 = icmp ugt i32 %21, %22
  %.0.i.i3 = select i1 %23, i1 %26, i1 %27
  br label %_ZNK4Luau8PositiongeERKS0_.exit

_ZNK4Luau8PositiongeERKS0_.exit:                  ; preds = %25, %_ZNK4Luau8PositionleERKS0_.exit.thread, %_ZNK4Luau8PositionleERKS0_.exit
  %28 = phi i1 [ false, %_ZNK4Luau8PositionleERKS0_.exit ], [ true, %_ZNK4Luau8PositionleERKS0_.exit.thread ], [ %.0.i.i3, %25 ]
  ret i1 %28
}